target datalayout = "e-m:e-p270:32:32-p271:32:32-p272:64:64-i64:64-i128:128-f80:128-n8:16:32:64-S128"
target triple = "x86_64-pc-linux-gnu"

%struct.Vector2 = type { float, float }

; Function Attrs: nounwind uwtable
define <2 x float> @GetSplinePointCatmullRom(<2 x float> %0, <2 x float> %1, <2 x float> %2, <2 x float> %3, float noundef %4) #0 {
  %6 = alloca %struct.Vector2, align 4
  %7 = alloca %struct.Vector2, align 4
  %8 = alloca %struct.Vector2, align 4
  %9 = alloca %struct.Vector2, align 4
  %10 = alloca %struct.Vector2, align 4
  %11 = alloca float, align 4
  %12 = alloca float, align 4
  %13 = alloca float, align 4
  %14 = alloca float, align 4
  %15 = alloca float, align 4
  store <2 x float> %0, ptr %7, align 4
  store <2 x float> %1, ptr %8, align 4
  store <2 x float> %2, ptr %9, align 4
  store <2 x float> %3, ptr %10, align 4
  store float %4, ptr %11, align 4
  call void @llvm.memset.p0.i64(ptr align 4 %6, i8 0, i64 8, i1 false)
  call void @llvm.lifetime.start.p0(i64 4, ptr %12) #8
  %16 = load float, ptr %11, align 4
  %17 = fmul float -1.000000e+00, %16
  %18 = load float, ptr %11, align 4
  %19 = fmul float %17, %18
  %20 = load float, ptr %11, align 4
  %21 = load float, ptr %11, align 4
  %22 = fmul float 2.000000e+00, %21
  %23 = load float, ptr %11, align 4
  %24 = fmul float %22, %23
  %25 = call float @llvm.fmuladd.f32(float %19, float %20, float %24)
  %26 = load float, ptr %11, align 4
  %27 = call float @llvm.fmuladd.f32(float -1.000000e+00, float %26, float %25)
  store float %27, ptr %12, align 4
  call void @llvm.lifetime.start.p0(i64 4, ptr %13) #8
  %28 = load float, ptr %11, align 4
  %29 = fmul float 3.000000e+00, %28
  %30 = load float, ptr %11, align 4
  %31 = fmul float %29, %30
  %32 = load float, ptr %11, align 4
  %33 = load float, ptr %11, align 4
  %34 = fmul float -5.000000e+00, %33
  %35 = load float, ptr %11, align 4
  %36 = fmul float %34, %35
  %37 = call float @llvm.fmuladd.f32(float %31, float %32, float %36)
  %38 = fadd float %37, 2.000000e+00
  store float %38, ptr %13, align 4
  call void @llvm.lifetime.start.p0(i64 4, ptr %14) #8
  %39 = load float, ptr %11, align 4
  %40 = fmul float -3.000000e+00, %39
  %41 = load float, ptr %11, align 4
  %42 = fmul float %40, %41
  %43 = load float, ptr %11, align 4
  %44 = load float, ptr %11, align 4
  %45 = fmul float 4.000000e+00, %44
  %46 = load float, ptr %11, align 4
  %47 = fmul float %45, %46
  %48 = call float @llvm.fmuladd.f32(float %42, float %43, float %47)
  %49 = load float, ptr %11, align 4
  %50 = fadd float %48, %49
  store float %50, ptr %14, align 4
  call void @llvm.lifetime.start.p0(i64 4, ptr %15) #8
  %51 = load float, ptr %11, align 4
  %52 = load float, ptr %11, align 4
  %53 = fmul float %51, %52
  %54 = load float, ptr %11, align 4
  %55 = load float, ptr %11, align 4
  %56 = load float, ptr %11, align 4
  %57 = fmul float %55, %56
  %58 = fneg float %57
  %59 = call float @llvm.fmuladd.f32(float %53, float %54, float %58)
  store float %59, ptr %15, align 4
  %60 = getelementptr inbounds nuw %struct.Vector2, ptr %7, i32 0, i32 0
  %61 = load float, ptr %60, align 4
  %62 = load float, ptr %12, align 4
  %63 = getelementptr inbounds nuw %struct.Vector2, ptr %8, i32 0, i32 0
  %64 = load float, ptr %63, align 4
  %65 = load float, ptr %13, align 4
  %66 = fmul float %64, %65
  %67 = call float @llvm.fmuladd.f32(float %61, float %62, float %66)
  %68 = getelementptr inbounds nuw %struct.Vector2, ptr %9, i32 0, i32 0
  %69 = load float, ptr %68, align 4
  %70 = load float, ptr %14, align 4
  %71 = call float @llvm.fmuladd.f32(float %69, float %70, float %67)
  %72 = getelementptr inbounds nuw %struct.Vector2, ptr %10, i32 0, i32 0
  %73 = load float, ptr %72, align 4
  %74 = load float, ptr %15, align 4
  %75 = call float @llvm.fmuladd.f32(float %73, float %74, float %71)
  %76 = fmul float 5.000000e-01, %75
  %77 = getelementptr inbounds nuw %struct.Vector2, ptr %6, i32 0, i32 0
  store float %76, ptr %77, align 4
  %78 = getelementptr inbounds nuw %struct.Vector2, ptr %7, i32 0, i32 1
  %79 = load float, ptr %78, align 4
  %80 = load float, ptr %12, align 4
  %81 = getelementptr inbounds nuw %struct.Vector2, ptr %8, i32 0, i32 1
  %82 = load float, ptr %81, align 4
  %83 = load float, ptr %13, align 4
  %84 = fmul float %82, %83
  %85 = call float @llvm.fmuladd.f32(float %79, float %80, float %84)
  %86 = getelementptr inbounds nuw %struct.Vector2, ptr %9, i32 0, i32 1
  %87 = load float, ptr %86, align 4
  %88 = load float, ptr %14, align 4
  %89 = call float @llvm.fmuladd.f32(float %87, float %88, float %85)
  %90 = getelementptr inbounds nuw %struct.Vector2, ptr %10, i32 0, i32 1
  %91 = load float, ptr %90, align 4
  %92 = load float, ptr %15, align 4
  %93 = call float @llvm.fmuladd.f32(float %91, float %92, float %89)
  %94 = fmul float 5.000000e-01, %93
  %95 = getelementptr inbounds nuw %struct.Vector2, ptr %6, i32 0, i32 1
  store float %94, ptr %95, align 4
  call void @llvm.lifetime.end.p0(i64 4, ptr %15) #8
  call void @llvm.lifetime.end.p0(i64 4, ptr %14) #8
  call void @llvm.lifetime.end.p0(i64 4, ptr %13) #8
  call void @llvm.lifetime.end.p0(i64 4, ptr %12) #8
  %96 = load <2 x float>, ptr %6, align 4
  ret <2 x float> %96
}