; Function Attrs: mustprogress nofree norecurse nosync nounwind willreturn memory(none) uwtable
define <2 x float> @GetSplinePointCatmullRom(<2 x float> %0, <2 x float> %1, <2 x float> %2, <2 x float> %3, float noundef %4) local_unnamed_addr #11 {
  %6 = fneg float %4
  %7 = fmul float %4, %6
  %8 = fmul float %4, 2.000000e+00
  %9 = fmul float %4, %8
  %10 = tail call float @llvm.fmuladd.f32(float %7, float %4, float %9)
  %11 = fsub float %10, %4
  %12 = fmul float %4, 3.000000e+00
  %13 = fmul float %4, %12
  %14 = fmul float %4, -5.000000e+00
  %15 = fmul float %4, %14
  %16 = tail call float @llvm.fmuladd.f32(float %13, float %4, float %15)
  %17 = fadd float %16, 2.000000e+00
  %18 = fmul float %4, -3.000000e+00
  %19 = fmul float %4, %18
  %20 = fmul float %4, 4.000000e+00
  %21 = fmul float %4, %20
  %22 = tail call float @llvm.fmuladd.f32(float %19, float %4, float %21)
  %23 = fadd float %4, %22
  %24 = fmul float %4, %4
  %25 = fneg float %24
  %26 = tail call float @llvm.fmuladd.f32(float %24, float %4, float %25)
  %.sroa.032.0.vec.extract = extractelement <2 x float> %0, i64 0
  %.sroa.031.0.vec.extract = extractelement <2 x float> %1, i64 0
  %27 = fmul float %.sroa.031.0.vec.extract, %17
  %28 = tail call float @llvm.fmuladd.f32(float %.sroa.032.0.vec.extract, float %11, float %27)
  %.sroa.030.0.vec.extract = extractelement <2 x float> %2, i64 0
  %29 = tail call float @llvm.fmuladd.f32(float %.sroa.030.0.vec.extract, float %23, float %28)
  %.sroa.0.0.vec.extract = extractelement <2 x float> %3, i64 0
  %30 = tail call float @llvm.fmuladd.f32(float %.sroa.0.0.vec.extract, float %26, float %29)
  %31 = fmul float %30, 5.000000e-01
  %.sroa.033.0.vec.insert = insertelement <2 x float> poison, float %31, i64 0
  %.sroa.032.4.vec.extract = extractelement <2 x float> %0, i64 1
  %.sroa.031.4.vec.extract = extractelement <2 x float> %1, i64 1
  %32 = fmul float %.sroa.031.4.vec.extract, %17
  %33 = tail call float @llvm.fmuladd.f32(float %.sroa.032.4.vec.extract, float %11, float %32)
  %.sroa.030.4.vec.extract = extractelement <2 x float> %2, i64 1
  %34 = tail call float @llvm.fmuladd.f32(float %.sroa.030.4.vec.extract, float %23, float %33)
  %.sroa.0.4.vec.extract = extractelement <2 x float> %3, i64 1
  %35 = tail call float @llvm.fmuladd.f32(float %.sroa.0.4.vec.extract, float %26, float %34)
  %36 = fmul float %35, 5.000000e-01
  %.sroa.033.4.vec.insert = insertelement <2 x float> %.sroa.033.0.vec.insert, float %36, i64 1
  ret <2 x float> %.sroa.033.4.vec.insert
}